; Function Attrs: null_pointer_is_valid sspstrong uwtable
define hidden void @packet_range_convert_selection_str(ptr noundef captures(none) initializes((56, 60), (92, 96), (128, 132), (152, 156)) %0, ptr noundef %1) local_unnamed_addr #0 {
  %3 = alloca ptr, align 8
  call void @llvm.lifetime.start.p0(i64 8, ptr nonnull %3) #9
  %4 = getelementptr inbounds nuw i8, ptr %0, i64 24
  %5 = load ptr, ptr %4, align 8
  %.not = icmp eq ptr %5, null
  br i1 %.not, label %7, label %6

6:                                                ; preds = %2
  tail call void @wmem_free(ptr noundef null, ptr noundef nonnull %5)
  br label %7

7:                                                ; preds = %2, %6
  %8 = getelementptr inbounds nuw i8, ptr %0, i64 40
  %9 = load ptr, ptr %8, align 8
  %10 = getelementptr inbounds nuw i8, ptr %9, i64 72
  %11 = load i32, ptr %10, align 8
  %12 = call i32 @range_convert_str(ptr noundef null, ptr noundef nonnull %3, ptr noundef %1, i32 noundef %11)
  %.not18 = icmp eq i32 %12, 0
  br i1 %.not18, label %21, label %13

13:                                               ; preds = %7
  store ptr null, ptr %4, align 8
  %14 = getelementptr inbounds nuw i8, ptr %0, i64 32
  store i32 %12, ptr %14, align 8
  %15 = getelementptr inbounds nuw i8, ptr %0, i64 56
  store i32 0, ptr %15, align 8
  %16 = getelementptr inbounds nuw i8, ptr %0, i64 72
  store i32 0, ptr %16, align 8
  %17 = getelementptr inbounds nuw i8, ptr %0, i64 92
  store i32 0, ptr %17, align 4
  %18 = getelementptr inbounds nuw i8, ptr %0, i64 128
  store i32 0, ptr %18, align 8
  %19 = getelementptr inbounds nuw i8, ptr %0, i64 132
  store i32 0, ptr %19, align 4
  %20 = getelementptr inbounds nuw i8, ptr %0, i64 152
  store i32 0, ptr %20, align 8
  br label %27

21:                                               ; preds = %7
  %22 = load ptr, ptr %3, align 8
  store ptr %22, ptr %4, align 8
  %23 = getelementptr inbounds nuw i8, ptr %0, i64 208
  %24 = load ptr, ptr %23, align 8
  call void @g_hash_table_remove_all(ptr noundef %24)
  %25 = getelementptr inbounds nuw i8, ptr %0, i64 216
  %26 = load ptr, ptr %25, align 8
  call void @g_hash_table_remove_all(ptr noundef %26)
  call fastcc void @packet_range_calc_selection(ptr noundef %0)
  br label %27

27:                                               ; preds = %21, %13
  call void @llvm.lifetime.end.p0(i64 8, ptr nonnull %3) #9
  ret void
}